; Function Attrs: mustprogress nofree norecurse nosync nounwind willreturn memory(read, inaccessiblemem: none) uwtable
define noundef zeroext i1 @_ZNK25PreprocessingBondAtomType5isSetEi(ptr noundef nonnull readonly align 8 captures(none) dereferenceable(8) %0, i32 noundef %1) local_unnamed_addr #7 align 2 {
  %3 = icmp sgt i32 %1, -1
  br i1 %3, label %4, label %15

4:                                                ; preds = %2
  %5 = zext nneg i32 %1 to i64
  %6 = load ptr, ptr %0, align 8, !tbaa !4
  %7 = getelementptr inbounds nuw i8, ptr %6, i64 8
  %8 = load ptr, ptr %7, align 8, !tbaa !22
  %9 = load ptr, ptr %6, align 8, !tbaa !24
  %10 = ptrtoint ptr %8 to i64
  %11 = ptrtoint ptr %9 to i64
  %12 = sub i64 %10, %11
  %13 = ashr exact i64 %12, 5
  %14 = icmp sgt i64 %13, %5
  br label %15

15:                                               ; preds = %4, %2
  %16 = phi i1 [ false, %2 ], [ %14, %4 ]
  ret i1 %16
}